target datalayout = "e-m:e-p270:32:32-p271:32:32-p272:64:64-i64:64-i128:128-f80:128-n8:16:32:64-S128"
target triple = "x86_64-pc-linux-gnu"

@.str = private unnamed_addr constant [5 x i8] c"ALPH\00", align 1
@.str.4 = private unnamed_addr constant [5 x i8] c"VP8 \00", align 1
@.str.5 = private unnamed_addr constant [5 x i8] c"VP8L\00", align 1

; Function Attrs: inlinehint nounwind uwtable
define internal i32 @GetLE16(ptr noundef %0) #3 {
  %2 = alloca ptr, align 8
  store ptr %0, ptr %2, align 8, !tbaa !14
  %3 = load ptr, ptr %2, align 8, !tbaa !14
  %4 = getelementptr inbounds i8, ptr %3, i64 0
  %5 = load i8, ptr %4, align 1, !tbaa !34
  %6 = zext i8 %5 to i32
  %7 = shl i32 %6, 0
  %8 = load ptr, ptr %2, align 8, !tbaa !14
  %9 = getelementptr inbounds i8, ptr %8, i64 1
  %10 = load i8, ptr %9, align 1, !tbaa !34
  %11 = zext i8 %10 to i32
  %12 = shl i32 %11, 8
  %13 = or i32 %7, %12
  ret i32 %13
}

; Function Attrs: inlinehint nounwind uwtable
define internal i32 @GetLE32(ptr noundef %0) #3 {
  %2 = alloca ptr, align 8
  store ptr %0, ptr %2, align 8, !tbaa !14
  %3 = load ptr, ptr %2, align 8, !tbaa !14
  %4 = call i32 @GetLE16(ptr noundef %3)
  %5 = load ptr, ptr %2, align 8, !tbaa !14
  %6 = getelementptr inbounds i8, ptr %5, i64 2
  %7 = call i32 @GetLE16(ptr noundef %6)
  %8 = shl i32 %7, 16
  %9 = or i32 %4, %8
  ret i32 %9
}

; Function Attrs: nounwind uwtable
define internal i32 @ParseOptionalChunks(ptr noundef %0, ptr noundef %1, i64 noundef %2, ptr noundef %3, ptr noundef %4) #0 {
  %6 = alloca i32, align 4
  %7 = alloca ptr, align 8
  %8 = alloca ptr, align 8
  %9 = alloca i64, align 8
  %10 = alloca ptr, align 8
  %11 = alloca ptr, align 8
  %12 = alloca ptr, align 8
  %13 = alloca i64, align 8
  %14 = alloca i32, align 4
  %15 = alloca i32, align 4
  %16 = alloca i32, align 4
  %17 = alloca i32, align 4
  store ptr %0, ptr %7, align 8, !tbaa !78
  store ptr %1, ptr %8, align 8, !tbaa !124
  store i64 %2, ptr %9, align 8, !tbaa !15
  store ptr %3, ptr %10, align 8, !tbaa !78
  store ptr %4, ptr %11, align 8, !tbaa !124
  call void @llvm.lifetime.start.p0(i64 8, ptr %12) #7
  call void @llvm.lifetime.start.p0(i64 8, ptr %13) #7
  call void @llvm.lifetime.start.p0(i64 4, ptr %14) #7
  store i32 22, ptr %14, align 4, !tbaa !7
  %18 = load ptr, ptr %7, align 8, !tbaa !78
  %19 = load ptr, ptr %18, align 8, !tbaa !14
  store ptr %19, ptr %12, align 8, !tbaa !14
  %20 = load ptr, ptr %8, align 8, !tbaa !124
  %21 = load i64, ptr %20, align 8, !tbaa !15
  store i64 %21, ptr %13, align 8, !tbaa !15
  %22 = load ptr, ptr %10, align 8, !tbaa !78
  store ptr null, ptr %22, align 8, !tbaa !14
  %23 = load ptr, ptr %11, align 8, !tbaa !124
  store i64 0, ptr %23, align 8, !tbaa !15
  br label %24

24:                                               ; preds = %93, %5
  br label %25

25:                                               ; preds = %24
  call void @llvm.lifetime.start.p0(i64 4, ptr %15) #7
  call void @llvm.lifetime.start.p0(i64 4, ptr %16) #7
  %26 = load ptr, ptr %12, align 8, !tbaa !14
  %27 = load ptr, ptr %7, align 8, !tbaa !78
  store ptr %26, ptr %27, align 8, !tbaa !14
  %28 = load i64, ptr %13, align 8, !tbaa !15
  %29 = load ptr, ptr %8, align 8, !tbaa !124
  store i64 %28, ptr %29, align 8, !tbaa !15
  %30 = load i64, ptr %13, align 8, !tbaa !15
  %31 = icmp ult i64 %30, 8
  br i1 %31, label %32, label %33

32:                                               ; preds = %25
  store i32 7, ptr %6, align 4
  store i32 1, ptr %17, align 4
  br label %91

33:                                               ; preds = %25
  %34 = load ptr, ptr %12, align 8, !tbaa !14
  %35 = getelementptr inbounds i8, ptr %34, i64 4
  %36 = call i32 @GetLE32(ptr noundef %35)
  store i32 %36, ptr %15, align 4, !tbaa !7
  %37 = load i32, ptr %15, align 4, !tbaa !7
  %38 = icmp ugt i32 %37, -10
  br i1 %38, label %39, label %40

39:                                               ; preds = %33
  store i32 3, ptr %6, align 4
  store i32 1, ptr %17, align 4
  br label %91

40:                                               ; preds = %33
  %41 = load i32, ptr %15, align 4, !tbaa !7
  %42 = add i32 8, %41
  %43 = add i32 %42, 1
  %44 = and i32 %43, -2
  store i32 %44, ptr %16, align 4, !tbaa !7
  %45 = load i32, ptr %16, align 4, !tbaa !7
  %46 = load i32, ptr %14, align 4, !tbaa !7
  %47 = add i32 %46, %45
  store i32 %47, ptr %14, align 4, !tbaa !7
  %48 = load i64, ptr %9, align 8, !tbaa !15
  %49 = icmp ugt i64 %48, 0
  br i1 %49, label %50, label %56

50:                                               ; preds = %40
  %51 = load i32, ptr %14, align 4, !tbaa !7
  %52 = zext i32 %51 to i64
  %53 = load i64, ptr %9, align 8, !tbaa !15
  %54 = icmp ugt i64 %52, %53
  br i1 %54, label %55, label %56

55:                                               ; preds = %50
  store i32 3, ptr %6, align 4
  store i32 1, ptr %17, align 4
  br label %91

56:                                               ; preds = %50, %40
  %57 = load ptr, ptr %12, align 8, !tbaa !14
  %58 = call i32 @memcmp(ptr noundef %57, ptr noundef @.str.4, i64 noundef 4) #8
  %59 = icmp ne i32 %58, 0
  br i1 %59, label %60, label %64

60:                                               ; preds = %56
  %61 = load ptr, ptr %12, align 8, !tbaa !14
  %62 = call i32 @memcmp(ptr noundef %61, ptr noundef @.str.5, i64 noundef 4) #8
  %63 = icmp ne i32 %62, 0
  br i1 %63, label %65, label %64

64:                                               ; preds = %60, %56
  store i32 0, ptr %6, align 4
  store i32 1, ptr %17, align 4
  br label %91

65:                                               ; preds = %60
  %66 = load i64, ptr %13, align 8, !tbaa !15
  %67 = load i32, ptr %16, align 4, !tbaa !7
  %68 = zext i32 %67 to i64
  %69 = icmp ult i64 %66, %68
  br i1 %69, label %70, label %71

70:                                               ; preds = %65
  store i32 7, ptr %6, align 4
  store i32 1, ptr %17, align 4
  br label %91

71:                                               ; preds = %65
  %72 = load ptr, ptr %12, align 8, !tbaa !14
  %73 = call i32 @memcmp(ptr noundef %72, ptr noundef @.str, i64 noundef 4) #8
  %74 = icmp ne i32 %73, 0
  br i1 %74, label %82, label %75

75:                                               ; preds = %71
  %76 = load ptr, ptr %12, align 8, !tbaa !14
  %77 = getelementptr inbounds i8, ptr %76, i64 8
  %78 = load ptr, ptr %10, align 8, !tbaa !78
  store ptr %77, ptr %78, align 8, !tbaa !14
  %79 = load i32, ptr %15, align 4, !tbaa !7
  %80 = zext i32 %79 to i64
  %81 = load ptr, ptr %11, align 8, !tbaa !124
  store i64 %80, ptr %81, align 8, !tbaa !15
  br label %82

82:                                               ; preds = %75, %71
  %83 = load i32, ptr %16, align 4, !tbaa !7
  %84 = load ptr, ptr %12, align 8, !tbaa !14
  %85 = zext i32 %83 to i64
  %86 = getelementptr inbounds nuw i8, ptr %84, i64 %85
  store ptr %86, ptr %12, align 8, !tbaa !14
  %87 = load i32, ptr %16, align 4, !tbaa !7
  %88 = zext i32 %87 to i64
  %89 = load i64, ptr %13, align 8, !tbaa !15
  %90 = sub i64 %89, %88
  store i64 %90, ptr %13, align 8, !tbaa !15
  store i32 0, ptr %17, align 4
  br label %91

91:                                               ; preds = %82, %70, %64, %55, %39, %32
  call void @llvm.lifetime.end.p0(i64 4, ptr %16) #7
  call void @llvm.lifetime.end.p0(i64 4, ptr %15) #7
  %92 = load i32, ptr %17, align 4
  switch i32 %92, label %94 [
    i32 0, label %93
  ]

93:                                               ; preds = %91
  br label %24

94:                                               ; preds = %91
  call void @llvm.lifetime.end.p0(i64 4, ptr %14) #7
  call void @llvm.lifetime.end.p0(i64 8, ptr %13) #7
  call void @llvm.lifetime.end.p0(i64 8, ptr %12) #7
  %95 = load i32, ptr %6, align 4
  ret i32 %95
}