; Function Attrs: nofree nounwind memory(read, argmem: readwrite, inaccessiblemem: none) uwtable
define internal fastcc range(i32 0, 8) i32 @ParseOptionalChunks(ptr noundef nonnull captures(none) %0, ptr noundef nonnull captures(none) %1, i64 noundef %2, ptr noundef nonnull writeonly captures(none) initializes((0, 8)) %3, ptr noundef nonnull writeonly captures(none) initializes((0, 8)) %4) unnamed_addr #6 {
  %6 = load ptr, ptr %0, align 8, !tbaa !13
  %7 = load i64, ptr %1, align 8, !tbaa !14
  store ptr null, ptr %3, align 8, !tbaa !13
  store i64 0, ptr %4, align 8, !tbaa !14
  store ptr %6, ptr %0, align 8, !tbaa !13
  store i64 %7, ptr %1, align 8, !tbaa !14
  %8 = icmp ult i64 %7, 8
  br i1 %8, label %._crit_edge, label %.lr.ph

.lr.ph:                                           ; preds = %5
  %.not.not = icmp eq i64 %2, 0
  br i1 %.not.not, label %.lr.ph.split.us, label %.lr.ph.split

.lr.ph.split.us:                                  ; preds = %.lr.ph, %27
  %.03255.us = phi ptr [ %28, %27 ], [ %6, %.lr.ph ]
  %.03653.us = phi i64 [ %29, %27 ], [ %7, %.lr.ph ]
  %9 = getelementptr inbounds nuw i8, ptr %.03255.us, i64 4
  %.val.i.us = load i16, ptr %9, align 1
  %10 = zext i16 %.val.i.us to i32
  %11 = getelementptr inbounds nuw i8, ptr %.03255.us, i64 6
  %.val3.i.us = load i16, ptr %11, align 1
  %12 = zext i16 %.val3.i.us to i32
  %13 = shl nuw i32 %12, 16
  %14 = or disjoint i32 %13, %10
  %15 = icmp ugt i32 %14, -10
  br i1 %15, label %._crit_edge, label %16

16:                                               ; preds = %.lr.ph.split.us
  %17 = add nuw i32 %14, 9
  %18 = and i32 %17, -2
  %bcmp.us = tail call i32 @bcmp(ptr noundef nonnull dereferenceable(4) %.03255.us, ptr noundef nonnull dereferenceable(4) @.str.4, i64 4)
  %.not41.us = icmp eq i32 %bcmp.us, 0
  br i1 %.not41.us, label %._crit_edge, label %19

19:                                               ; preds = %16
  %bcmp42.us = tail call i32 @bcmp(ptr noundef nonnull dereferenceable(4) %.03255.us, ptr noundef nonnull dereferenceable(4) @.str.5, i64 4)
  %.not43.us = icmp eq i32 %bcmp42.us, 0
  br i1 %.not43.us, label %._crit_edge, label %20

20:                                               ; preds = %19
  %21 = zext i32 %18 to i64
  %22 = icmp ult i64 %.03653.us, %21
  br i1 %22, label %._crit_edge, label %23

23:                                               ; preds = %20
  %bcmp44.us = tail call i32 @bcmp(ptr noundef nonnull dereferenceable(4) %.03255.us, ptr noundef nonnull dereferenceable(4) @.str, i64 4)
  %.not45.us = icmp eq i32 %bcmp44.us, 0
  br i1 %.not45.us, label %24, label %27

24:                                               ; preds = %23
  %25 = getelementptr inbounds nuw i8, ptr %.03255.us, i64 8
  store ptr %25, ptr %3, align 8, !tbaa !13
  %26 = zext i32 %14 to i64
  store i64 %26, ptr %4, align 8, !tbaa !14
  br label %27

27:                                               ; preds = %24, %23
  %28 = getelementptr inbounds nuw i8, ptr %.03255.us, i64 %21
  %29 = sub i64 %.03653.us, %21
  store ptr %28, ptr %0, align 8, !tbaa !13
  store i64 %29, ptr %1, align 8, !tbaa !14
  %30 = icmp ult i64 %29, 8
  br i1 %30, label %._crit_edge, label %.lr.ph.split.us

.lr.ph.split:                                     ; preds = %.lr.ph, %53
  %.03255 = phi ptr [ %54, %53 ], [ %6, %.lr.ph ]
  %.03454 = phi i32 [ %41, %53 ], [ 22, %.lr.ph ]
  %.03653 = phi i64 [ %55, %53 ], [ %7, %.lr.ph ]
  %31 = getelementptr inbounds nuw i8, ptr %.03255, i64 4
  %.val.i = load i16, ptr %31, align 1
  %32 = zext i16 %.val.i to i32
  %33 = getelementptr inbounds nuw i8, ptr %.03255, i64 6
  %.val3.i = load i16, ptr %33, align 1
  %34 = zext i16 %.val3.i to i32
  %35 = shl nuw i32 %34, 16
  %36 = or disjoint i32 %35, %32
  %37 = icmp ugt i32 %36, -10
  br i1 %37, label %._crit_edge, label %38

38:                                               ; preds = %.lr.ph.split
  %39 = add nuw i32 %36, 9
  %40 = and i32 %39, -2
  %41 = add i32 %40, %.03454
  %42 = zext i32 %41 to i64
  %43 = icmp ult i64 %2, %42
  br i1 %43, label %._crit_edge, label %44

44:                                               ; preds = %38
  %bcmp = tail call i32 @bcmp(ptr noundef nonnull dereferenceable(4) %.03255, ptr noundef nonnull dereferenceable(4) @.str.4, i64 4)
  %.not41 = icmp eq i32 %bcmp, 0
  br i1 %.not41, label %._crit_edge, label %45

45:                                               ; preds = %44
  %bcmp42 = tail call i32 @bcmp(ptr noundef nonnull dereferenceable(4) %.03255, ptr noundef nonnull dereferenceable(4) @.str.5, i64 4)
  %.not43 = icmp eq i32 %bcmp42, 0
  br i1 %.not43, label %._crit_edge, label %46

46:                                               ; preds = %45
  %47 = zext i32 %40 to i64
  %48 = icmp ult i64 %.03653, %47
  br i1 %48, label %._crit_edge, label %49

49:                                               ; preds = %46
  %bcmp44 = tail call i32 @bcmp(ptr noundef nonnull dereferenceable(4) %.03255, ptr noundef nonnull dereferenceable(4) @.str, i64 4)
  %.not45 = icmp eq i32 %bcmp44, 0
  br i1 %.not45, label %50, label %53

50:                                               ; preds = %49
  %51 = getelementptr inbounds nuw i8, ptr %.03255, i64 8
  store ptr %51, ptr %3, align 8, !tbaa !13
  %52 = zext i32 %36 to i64
  store i64 %52, ptr %4, align 8, !tbaa !14
  br label %53

53:                                               ; preds = %49, %50
  %54 = getelementptr inbounds nuw i8, ptr %.03255, i64 %47
  %55 = sub i64 %.03653, %47
  store ptr %54, ptr %0, align 8, !tbaa !13
  store i64 %55, ptr %1, align 8, !tbaa !14
  %56 = icmp ult i64 %55, 8
  br i1 %56, label %._crit_edge, label %.lr.ph.split

._crit_edge:                                      ; preds = %46, %44, %45, %38, %.lr.ph.split, %53, %20, %16, %19, %.lr.ph.split.us, %27, %5
  %.1.ph = phi i32 [ 7, %5 ], [ 7, %27 ], [ 3, %.lr.ph.split.us ], [ 0, %19 ], [ 0, %16 ], [ 7, %20 ], [ 7, %53 ], [ 3, %.lr.ph.split ], [ 3, %38 ], [ 0, %45 ], [ 0, %44 ], [ 7, %46 ]
  ret i32 %.1.ph
}